target datalayout = "e-m:e-p270:32:32-p271:32:32-p272:64:64-i64:64-i128:128-f80:128-n8:16:32:64-S128"
target triple = "x86_64-unknown-linux-gnu"

%class.symbol = type { ptr }
%"class.std::__cxx11::basic_string" = type { %"struct.std::__cxx11::basic_string<char>::_Alloc_hider", i64, %union.anon }
%"struct.std::__cxx11::basic_string<char>::_Alloc_hider" = type { ptr }
%union.anon = type { i64, [8 x i8] }

@.str = private unnamed_addr constant [5 x i8] c"null\00", align 1

; Function Attrs: mustprogress nounwind uwtable
define linkonce_odr hidden noundef zeroext i1 @_ZNK6symbol7is_nullEv(ptr noundef nonnull align 8 dereferenceable(8) %this) #5 comdat align 2 {
entry:
  %this.addr = alloca ptr, align 8
  store ptr %this, ptr %this.addr, align 8
  %this1 = load ptr, ptr %this.addr, align 8
  %m_data = getelementptr inbounds %class.symbol, ptr %this1, i32 0, i32 0
  %0 = load ptr, ptr %m_data, align 8
  %cmp = icmp eq ptr %0, null
  ret i1 %cmp
}

; Function Attrs: mustprogress uwtable
define internal noundef ptr @_ZN9format_nsL9mk_stringER11ast_managerRKNSt7__cxx1112basic_stringIcSt11char_traitsIcESaIcEEE(ptr noundef nonnull align 8 dereferenceable(976) %m, ptr noundef nonnull align 8 dereferenceable(32) %str) #4 {
entry:
  %m.addr = alloca ptr, align 8
  %str.addr = alloca ptr, align 8
  store ptr %m, ptr %m.addr, align 8
  store ptr %str, ptr %str.addr, align 8
  %0 = load ptr, ptr %m.addr, align 8
  %1 = load ptr, ptr %str.addr, align 8
  %call = call noundef ptr @_ZNKSt7__cxx1112basic_stringIcSt11char_traitsIcESaIcEE5c_strEv(ptr noundef nonnull align 8 dereferenceable(32) %1) #3
  %call1 = call noundef ptr @_ZN9format_ns9mk_stringER11ast_managerPKc(ptr noundef nonnull align 8 dereferenceable(976) %0, ptr noundef %call)
  ret ptr %call1
}

; Function Attrs: mustprogress uwtable
define hidden noundef ptr @_ZNK19smt2_pp_environment13pp_fdecl_nameERK6symbolRjb(ptr noundef nonnull align 8 dereferenceable(56) %this, ptr noundef nonnull align 8 dereferenceable(8) %s, ptr noundef nonnull align 4 dereferenceable(4) %len, i1 noundef zeroext %is_skolem) #4 align 2 personality ptr @__gxx_personality_v0 {
entry:
  %retval = alloca ptr, align 8
  %this.addr = alloca ptr, align 8
  %s.addr = alloca ptr, align 8
  %len.addr = alloca ptr, align 8
  %is_skolem.addr = alloca i8, align 1
  %m = alloca ptr, align 8
  %str = alloca %"class.std::__cxx11::basic_string", align 8
  %exn.slot = alloca ptr, align 8
  %ehselector.slot = alloca i32, align 4
  %str9 = alloca %"class.std::__cxx11::basic_string", align 8
  store ptr %this, ptr %this.addr, align 8
  store ptr %s, ptr %s.addr, align 8
  store ptr %len, ptr %len.addr, align 8
  %frombool = zext i1 %is_skolem to i8
  store i8 %frombool, ptr %is_skolem.addr, align 1
  %this1 = load ptr, ptr %this.addr, align 8
  %vtable = load ptr, ptr %this1, align 8
  %vfn = getelementptr inbounds ptr, ptr %vtable, i64 2
  %0 = load ptr, ptr %vfn, align 8
  %call = call noundef nonnull align 8 dereferenceable(976) ptr %0(ptr noundef nonnull align 8 dereferenceable(56) %this1)
  store ptr %call, ptr %m, align 8
  %1 = load ptr, ptr %s.addr, align 8
  %call2 = call noundef zeroext i1 @_Z21is_smt2_quoted_symbolRK6symbol(ptr noundef nonnull align 8 dereferenceable(8) %1)
  br i1 %call2, label %if.then, label %if.else

if.then:                                          ; preds = %entry
  %2 = load ptr, ptr %s.addr, align 8
  call void @_Z21mk_smt2_quoted_symbolB5cxx11RK6symbol(ptr sret(%"class.std::__cxx11::basic_string") align 8 %str, ptr noundef nonnull align 8 dereferenceable(8) %2)
  %call3 = call noundef i64 @_ZNKSt7__cxx1112basic_stringIcSt11char_traitsIcESaIcEE6lengthEv(ptr noundef nonnull align 8 dereferenceable(32) %str) #3
  %conv = trunc i64 %call3 to i32
  %3 = load ptr, ptr %len.addr, align 8
  store i32 %conv, ptr %3, align 4
  %4 = load ptr, ptr %m, align 8
  %call4 = invoke noundef ptr @_ZN9format_nsL9mk_stringER11ast_managerRKNSt7__cxx1112basic_stringIcSt11char_traitsIcESaIcEEE(ptr noundef nonnull align 8 dereferenceable(976) %4, ptr noundef nonnull align 8 dereferenceable(32) %str)
          to label %invoke.cont unwind label %lpad

invoke.cont:                                      ; preds = %if.then
  store ptr %call4, ptr %retval, align 8
  call void @_ZNSt7__cxx1112basic_stringIcSt11char_traitsIcESaIcEED1Ev(ptr noundef nonnull align 8 dereferenceable(32) %str) #3
  br label %return

lpad:                                             ; preds = %if.then
  %5 = landingpad { ptr, i32 }
          cleanup
  %6 = extractvalue { ptr, i32 } %5, 0
  store ptr %6, ptr %exn.slot, align 8
  %7 = extractvalue { ptr, i32 } %5, 1
  store i32 %7, ptr %ehselector.slot, align 4
  call void @_ZNSt7__cxx1112basic_stringIcSt11char_traitsIcESaIcEED1Ev(ptr noundef nonnull align 8 dereferenceable(32) %str) #3
  br label %eh.resume

if.else:                                          ; preds = %entry
  %8 = load ptr, ptr %s.addr, align 8
  %call5 = call noundef zeroext i1 @_ZNK6symbol7is_nullEv(ptr noundef nonnull align 8 dereferenceable(8) %8)
  br i1 %call5, label %if.then6, label %if.else8

if.then6:                                         ; preds = %if.else
  %9 = load ptr, ptr %len.addr, align 8
  store i32 4, ptr %9, align 4
  %10 = load ptr, ptr %m, align 8
  %call7 = call noundef ptr @_ZN9format_ns9mk_stringER11ast_managerPKc(ptr noundef nonnull align 8 dereferenceable(976) %10, ptr noundef @.str)
  store ptr %call7, ptr %retval, align 8
  br label %return

if.else8:                                         ; preds = %if.else
  %11 = load ptr, ptr %s.addr, align 8
  call void @_ZNK6symbol3strB5cxx11Ev(ptr sret(%"class.std::__cxx11::basic_string") align 8 %str9, ptr noundef nonnull align 8 dereferenceable(8) %11)
  %call10 = call noundef i64 @_ZNKSt7__cxx1112basic_stringIcSt11char_traitsIcESaIcEE6lengthEv(ptr noundef nonnull align 8 dereferenceable(32) %str9) #3
  %conv11 = trunc i64 %call10 to i32
  %12 = load ptr, ptr %len.addr, align 8
  store i32 %conv11, ptr %12, align 4
  %13 = load ptr, ptr %m, align 8
  %call14 = invoke noundef ptr @_ZN9format_nsL9mk_stringER11ast_managerRKNSt7__cxx1112basic_stringIcSt11char_traitsIcESaIcEEE(ptr noundef nonnull align 8 dereferenceable(976) %13, ptr noundef nonnull align 8 dereferenceable(32) %str9)
          to label %invoke.cont13 unwind label %lpad12

invoke.cont13:                                    ; preds = %if.else8
  store ptr %call14, ptr %retval, align 8
  call void @_ZNSt7__cxx1112basic_stringIcSt11char_traitsIcESaIcEED1Ev(ptr noundef nonnull align 8 dereferenceable(32) %str9) #3
  br label %return

lpad12:                                           ; preds = %if.else8
  %14 = landingpad { ptr, i32 }
          cleanup
  %15 = extractvalue { ptr, i32 } %14, 0
  store ptr %15, ptr %exn.slot, align 8
  %16 = extractvalue { ptr, i32 } %14, 1
  store i32 %16, ptr %ehselector.slot, align 4
  call void @_ZNSt7__cxx1112basic_stringIcSt11char_traitsIcESaIcEED1Ev(ptr noundef nonnull align 8 dereferenceable(32) %str9) #3
  br label %eh.resume

return:                                           ; preds = %invoke.cont13, %if.then6, %invoke.cont
  %17 = load ptr, ptr %retval, align 8
  ret ptr %17

eh.resume:                                        ; preds = %lpad12, %lpad
  %exn = load ptr, ptr %exn.slot, align 8
  %sel = load i32, ptr %ehselector.slot, align 4
  %lpad.val = insertvalue { ptr, i32 } poison, ptr %exn, 0
  %lpad.val15 = insertvalue { ptr, i32 } %lpad.val, i32 %sel, 1
  resume { ptr, i32 } %lpad.val15
}