; Function Attrs: mustprogress uwtable
define hidden noundef ptr @_ZNK19smt2_pp_environment13pp_fdecl_nameERK6symbolRjb(ptr noundef nonnull align 8 dereferenceable(56) %this, ptr noundef nonnull align 8 dereferenceable(8) %s, ptr nocapture noundef nonnull writeonly align 4 dereferenceable(4) %len, i1 zeroext %is_skolem) local_unnamed_addr #3 align 2 personality ptr @__gxx_personality_v0 {
entry:
  %str = alloca %"class.std::__cxx11::basic_string", align 8
  %str9 = alloca %"class.std::__cxx11::basic_string", align 8
  %vtable = load ptr, ptr %this, align 8
  %vfn = getelementptr inbounds i8, ptr %vtable, i64 16
  %0 = load ptr, ptr %vfn, align 8
  %call = tail call noundef nonnull align 8 dereferenceable(976) ptr %0(ptr noundef nonnull align 8 dereferenceable(56) %this)
  %call2 = tail call noundef zeroext i1 @_Z21is_smt2_quoted_symbolRK6symbol(ptr noundef nonnull align 8 dereferenceable(8) %s)
  br i1 %call2, label %if.then, label %if.else

if.then:                                          ; preds = %entry
  call void @_Z21mk_smt2_quoted_symbolB5cxx11RK6symbol(ptr nonnull sret(%"class.std::__cxx11::basic_string") align 8 %str, ptr noundef nonnull align 8 dereferenceable(8) %s)
  %call3 = call noundef i64 @_ZNKSt7__cxx1112basic_stringIcSt11char_traitsIcESaIcEE6lengthEv(ptr noundef nonnull align 8 dereferenceable(32) %str) #19
  %conv = trunc i64 %call3 to i32
  store i32 %conv, ptr %len, align 4
  %call.i = call noundef ptr @_ZNKSt7__cxx1112basic_stringIcSt11char_traitsIcESaIcEE5c_strEv(ptr noundef nonnull align 8 dereferenceable(32) %str) #19
  %call1.i9 = invoke noundef ptr @_ZN9format_ns9mk_stringER11ast_managerPKc(ptr noundef nonnull align 8 dereferenceable(976) %call, ptr noundef %call.i)
          to label %invoke.cont unwind label %lpad

invoke.cont:                                      ; preds = %if.then
  call void @_ZNSt7__cxx1112basic_stringIcSt11char_traitsIcESaIcEED1Ev(ptr noundef nonnull align 8 dereferenceable(32) %str) #19
  br label %return

lpad:                                             ; preds = %if.then
  %1 = landingpad { ptr, i32 }
          cleanup
  br label %eh.resume

if.else:                                          ; preds = %entry
  %2 = load ptr, ptr %s, align 8
  %cmp.i = icmp eq ptr %2, null
  br i1 %cmp.i, label %if.then6, label %if.else8

if.then6:                                         ; preds = %if.else
  store i32 4, ptr %len, align 4
  %call7 = tail call noundef ptr @_ZN9format_ns9mk_stringER11ast_managerPKc(ptr noundef nonnull align 8 dereferenceable(976) %call, ptr noundef nonnull @.str)
  br label %return

if.else8:                                         ; preds = %if.else
  call void @_ZNK6symbol3strB5cxx11Ev(ptr nonnull sret(%"class.std::__cxx11::basic_string") align 8 %str9, ptr noundef nonnull align 8 dereferenceable(8) %s)
  %call10 = call noundef i64 @_ZNKSt7__cxx1112basic_stringIcSt11char_traitsIcESaIcEE6lengthEv(ptr noundef nonnull align 8 dereferenceable(32) %str9) #19
  %conv11 = trunc i64 %call10 to i32
  store i32 %conv11, ptr %len, align 4
  %call.i10 = call noundef ptr @_ZNKSt7__cxx1112basic_stringIcSt11char_traitsIcESaIcEE5c_strEv(ptr noundef nonnull align 8 dereferenceable(32) %str9) #19
  %call1.i11 = invoke noundef ptr @_ZN9format_ns9mk_stringER11ast_managerPKc(ptr noundef nonnull align 8 dereferenceable(976) %call, ptr noundef %call.i10)
          to label %invoke.cont13 unwind label %lpad12

invoke.cont13:                                    ; preds = %if.else8
  call void @_ZNSt7__cxx1112basic_stringIcSt11char_traitsIcESaIcEED1Ev(ptr noundef nonnull align 8 dereferenceable(32) %str9) #19
  br label %return

lpad12:                                           ; preds = %if.else8
  %3 = landingpad { ptr, i32 }
          cleanup
  br label %eh.resume

return:                                           ; preds = %invoke.cont13, %if.then6, %invoke.cont
  %retval.0 = phi ptr [ %call1.i9, %invoke.cont ], [ %call7, %if.then6 ], [ %call1.i11, %invoke.cont13 ]
  ret ptr %retval.0

eh.resume:                                        ; preds = %lpad12, %lpad
  %str9.sink = phi ptr [ %str9, %lpad12 ], [ %str, %lpad ]
  %.pn = phi { ptr, i32 } [ %3, %lpad12 ], [ %1, %lpad ]
  call void @_ZNSt7__cxx1112basic_stringIcSt11char_traitsIcESaIcEED1Ev(ptr noundef nonnull align 8 dereferenceable(32) %str9.sink) #19
  resume { ptr, i32 } %.pn
}